target datalayout = "e-m:e-p270:32:32-p271:32:32-p272:64:64-i64:64-i128:128-f80:128-n8:16:32:64-S128"
target triple = "x86_64-pc-linux-gnu"

%"class.std::__cxx11::basic_string" = type { %"struct.std::__cxx11::basic_string<char>::_Alloc_hider", i64, %union.anon }
%"struct.std::__cxx11::basic_string<char>::_Alloc_hider" = type { ptr }
%union.anon = type { i64, [8 x i8] }
%struct.pj_ctx = type <{ %"class.std::__cxx11::basic_string", i32, i32, i8, i8, [6 x i8], ptr, ptr, ptr, i32, i8, [3 x i8], i32, [4 x i8], %"class.std::__cxx11::basic_string", %"class.std::vector.11", ptr, ptr, ptr, i8, [7 x i8], %struct.projFileApiCallbackAndData, %"class.std::__cxx11::basic_string", %"class.std::__cxx11::basic_string", i8, [7 x i8], %"class.std::__cxx11::basic_string", %struct.projNetworkCallbacksAndData, %"class.std::__cxx11::basic_string", %struct.projGridChunkCache, i32, i32, i32, [4 x i8] }>
%"class.std::vector.11" = type { %"struct.std::_Vector_base.12" }
%"struct.std::_Vector_base.12" = type { %"struct.std::_Vector_base<std::__cxx11::basic_string<char>, std::allocator<std::__cxx11::basic_string<char>>>::_Vector_impl" }
%"struct.std::_Vector_base<std::__cxx11::basic_string<char>, std::allocator<std::__cxx11::basic_string<char>>>::_Vector_impl" = type { %"struct.std::_Vector_base<std::__cxx11::basic_string<char>, std::allocator<std::__cxx11::basic_string<char>>>::_Vector_impl_data" }
%"struct.std::_Vector_base<std::__cxx11::basic_string<char>, std::allocator<std::__cxx11::basic_string<char>>>::_Vector_impl_data" = type { ptr, ptr, ptr }
%struct.projFileApiCallbackAndData = type { ptr, ptr, ptr, ptr, ptr, ptr, ptr, ptr, ptr, ptr, ptr }
%struct.projNetworkCallbacksAndData = type { i8, ptr, ptr, ptr, ptr, ptr }
%struct.projGridChunkCache = type <{ i8, [7 x i8], %"class.std::__cxx11::basic_string", i64, i32, [4 x i8] }>

@.str.5 = private unnamed_addr constant [26 x i8] c"PROJ_USE_PROJ4_INIT_RULES\00", align 1
@.str.6 = private unnamed_addr constant [4 x i8] c"yes\00", align 1
@.str.7 = private unnamed_addr constant [3 x i8] c"on\00", align 1
@.str.8 = private unnamed_addr constant [5 x i8] c"true\00", align 1
@.str.9 = private unnamed_addr constant [3 x i8] c"no\00", align 1
@.str.10 = private unnamed_addr constant [4 x i8] c"off\00", align 1
@.str.11 = private unnamed_addr constant [6 x i8] c"false\00", align 1
@.str.12 = private unnamed_addr constant [44 x i8] c"Invalid value for PROJ_USE_PROJ4_INIT_RULES\00", align 1

; Function Attrs: mustprogress nounwind uwtable
define internal noundef i32 @_ZL5EQUALPKcS0_(ptr noundef %0, ptr noundef %1) #0 {
  %3 = alloca ptr, align 8
  %4 = alloca ptr, align 8
  store ptr %0, ptr %3, align 8
  store ptr %1, ptr %4, align 8
  %5 = load ptr, ptr %3, align 8
  %6 = load ptr, ptr %4, align 8
  %7 = call i32 @strcasecmp(ptr noundef %5, ptr noundef %6) #7
  %8 = icmp eq i32 %7, 0
  %9 = zext i1 %8 to i32
  ret i32 %9
}

; Function Attrs: mustprogress uwtable
define i32 @proj_context_get_use_proj4_init_rules(ptr noundef %0, i32 noundef %1) #1 {
  %3 = alloca i32, align 4
  %4 = alloca ptr, align 8
  %5 = alloca i32, align 4
  %6 = alloca ptr, align 8
  store ptr %0, ptr %4, align 8
  store i32 %1, ptr %5, align 4
  %7 = call ptr @getenv(ptr noundef @.str.5) #19
  store ptr %7, ptr %6, align 8
  %8 = load ptr, ptr %4, align 8
  %9 = icmp eq ptr %8, null
  br i1 %9, label %10, label %12

10:                                               ; preds = %2
  %11 = call noundef ptr @_Z18pj_get_default_ctxv()
  store ptr %11, ptr %4, align 8
  br label %12

12:                                               ; preds = %10, %2
  %13 = load ptr, ptr %6, align 8
  %14 = icmp ne ptr %13, null
  br i1 %14, label %15, label %43

15:                                               ; preds = %12
  %16 = load ptr, ptr %6, align 8
  %17 = call noundef i32 @_ZL5EQUALPKcS0_(ptr noundef %16, ptr noundef @.str.6)
  %18 = icmp ne i32 %17, 0
  br i1 %18, label %27, label %19

19:                                               ; preds = %15
  %20 = load ptr, ptr %6, align 8
  %21 = call noundef i32 @_ZL5EQUALPKcS0_(ptr noundef %20, ptr noundef @.str.7)
  %22 = icmp ne i32 %21, 0
  br i1 %22, label %27, label %23

23:                                               ; preds = %19
  %24 = load ptr, ptr %6, align 8
  %25 = call noundef i32 @_ZL5EQUALPKcS0_(ptr noundef %24, ptr noundef @.str.8)
  %26 = icmp ne i32 %25, 0
  br i1 %26, label %27, label %28

27:                                               ; preds = %23, %19, %15
  store i32 1, ptr %3, align 4
  br label %54

28:                                               ; preds = %23
  %29 = load ptr, ptr %6, align 8
  %30 = call noundef i32 @_ZL5EQUALPKcS0_(ptr noundef %29, ptr noundef @.str.9)
  %31 = icmp ne i32 %30, 0
  br i1 %31, label %40, label %32

32:                                               ; preds = %28
  %33 = load ptr, ptr %6, align 8
  %34 = call noundef i32 @_ZL5EQUALPKcS0_(ptr noundef %33, ptr noundef @.str.10)
  %35 = icmp ne i32 %34, 0
  br i1 %35, label %40, label %36

36:                                               ; preds = %32
  %37 = load ptr, ptr %6, align 8
  %38 = call noundef i32 @_ZL5EQUALPKcS0_(ptr noundef %37, ptr noundef @.str.11)
  %39 = icmp ne i32 %38, 0
  br i1 %39, label %40, label %41

40:                                               ; preds = %36, %32, %28
  store i32 0, ptr %3, align 4
  br label %54

41:                                               ; preds = %36
  %42 = load ptr, ptr %4, align 8
  call void (ptr, i32, ptr, ...) @_Z6pj_logP6pj_ctxiPKcz(ptr noundef %42, i32 noundef 1, ptr noundef @.str.12)
  br label %43

43:                                               ; preds = %41, %12
  %44 = load ptr, ptr %4, align 8
  %45 = getelementptr inbounds %struct.pj_ctx, ptr %44, i32 0, i32 9
  %46 = load i32, ptr %45, align 8
  %47 = icmp sge i32 %46, 0
  br i1 %47, label %48, label %52

48:                                               ; preds = %43
  %49 = load ptr, ptr %4, align 8
  %50 = getelementptr inbounds %struct.pj_ctx, ptr %49, i32 0, i32 9
  %51 = load i32, ptr %50, align 8
  store i32 %51, ptr %3, align 4
  br label %54

52:                                               ; preds = %43
  %53 = load i32, ptr %5, align 4
  store i32 %53, ptr %3, align 4
  br label %54

54:                                               ; preds = %52, %48, %40, %27
  %55 = load i32, ptr %3, align 4
  ret i32 %55
}