; Function Attrs: mustprogress uwtable
define i32 @proj_context_get_use_proj4_init_rules(ptr noundef %0, i32 noundef %1) local_unnamed_addr #1 {
  %3 = tail call ptr @getenv(ptr noundef nonnull @.str.5) #33
  %4 = icmp eq ptr %0, null
  br i1 %4, label %5, label %7

5:                                                ; preds = %2
  %6 = tail call noundef ptr @_Z18pj_get_default_ctxv()
  br label %7

7:                                                ; preds = %5, %2
  %.012 = phi ptr [ %6, %5 ], [ %0, %2 ]
  %.not = icmp eq ptr %3, null
  br i1 %.not, label %21, label %8

8:                                                ; preds = %7
  %9 = tail call i32 @strcasecmp(ptr noundef nonnull %3, ptr noundef nonnull @.str.6) #36
  %.not22 = icmp eq i32 %9, 0
  br i1 %.not22, label %25, label %10

10:                                               ; preds = %8
  %11 = tail call i32 @strcasecmp(ptr noundef nonnull %3, ptr noundef nonnull @.str.7) #36
  %.not23 = icmp eq i32 %11, 0
  br i1 %.not23, label %25, label %12

12:                                               ; preds = %10
  %13 = tail call i32 @strcasecmp(ptr noundef nonnull %3, ptr noundef nonnull @.str.8) #36
  %.not24 = icmp eq i32 %13, 0
  br i1 %.not24, label %25, label %14

14:                                               ; preds = %12
  %15 = tail call i32 @strcasecmp(ptr noundef nonnull %3, ptr noundef nonnull @.str.9) #36
  %.not25 = icmp eq i32 %15, 0
  br i1 %.not25, label %25, label %16

16:                                               ; preds = %14
  %17 = tail call i32 @strcasecmp(ptr noundef nonnull %3, ptr noundef nonnull @.str.10) #36
  %.not26 = icmp eq i32 %17, 0
  br i1 %.not26, label %25, label %18

18:                                               ; preds = %16
  %19 = tail call i32 @strcasecmp(ptr noundef nonnull %3, ptr noundef nonnull @.str.11) #36
  %.not27 = icmp eq i32 %19, 0
  br i1 %.not27, label %25, label %20

20:                                               ; preds = %18
  tail call void (ptr, i32, ptr, ...) @_Z6pj_logP6pj_ctxiPKcz(ptr noundef %.012, i32 noundef 1, ptr noundef nonnull @.str.12)
  br label %21

21:                                               ; preds = %20, %7
  %22 = getelementptr inbounds i8, ptr %.012, i64 72
  %23 = load i32, ptr %22, align 8
  %24 = icmp slt i32 %23, 0
  %. = select i1 %24, i32 %1, i32 %23
  br label %25

25:                                               ; preds = %21, %14, %16, %18, %8, %10, %12
  %.0 = phi i32 [ 1, %12 ], [ 1, %10 ], [ 1, %8 ], [ 0, %18 ], [ 0, %16 ], [ 0, %14 ], [ %., %21 ]
  ret i32 %.0
}